; Function Attrs: nounwind uwtable
define dso_local void @pgstat_wal_reset_all_cb(i64 noundef %0) local_unnamed_addr #0 {
  %2 = load ptr, ptr @pgStatLocal, align 8
  %3 = getelementptr inbounds nuw i8, ptr %2, i64 50384
  %4 = tail call zeroext i1 @LWLockAcquire(ptr noundef nonnull %3, i32 noundef 0) #7
  %5 = getelementptr inbounds nuw i8, ptr %2, i64 50400
  tail call void @llvm.memset.p0.i64(ptr noundef nonnull align 8 dereferenceable(72) %5, i8 0, i64 64, i1 false)
  %6 = getelementptr inbounds nuw i8, ptr %2, i64 50464
  store i64 %0, ptr %6, align 8
  tail call void @LWLockRelease(ptr noundef nonnull %3) #7
  ret void
}